target datalayout = "e-m:e-p270:32:32-p271:32:32-p272:64:64-i64:64-i128:128-f80:128-n8:16:32:64-S128"
target triple = "x86_64-pc-linux-gnu"

; Function Attrs: nounwind uwtable
define internal i64 @mpi_bigendian_to_host(i64 noundef %0) #0 {
  %2 = alloca i64, align 8
  store i64 %0, ptr %2, align 8, !tbaa !3
  %3 = load i64, ptr %2, align 8, !tbaa !3
  %4 = call i64 @llvm.bswap.i64(i64 %3)
  ret i64 %4
}

; Function Attrs: nounwind uwtable
define hidden void @mbedtls_mpi_core_bigendian_to_host(ptr noundef %0, i64 noundef %1) #0 {
  %3 = alloca ptr, align 8
  %4 = alloca i64, align 8
  %5 = alloca ptr, align 8
  %6 = alloca ptr, align 8
  %7 = alloca i32, align 4
  %8 = alloca i64, align 8
  store ptr %0, ptr %3, align 8, !tbaa !7
  store i64 %1, ptr %4, align 8, !tbaa !3
  call void @llvm.lifetime.start.p0(i64 8, ptr %5) #7
  call void @llvm.lifetime.start.p0(i64 8, ptr %6) #7
  %9 = load i64, ptr %4, align 8, !tbaa !3
  %10 = icmp eq i64 %9, 0
  br i1 %10, label %11, label %12

11:                                               ; preds = %2
  store i32 1, ptr %7, align 4
  br label %38

12:                                               ; preds = %2
  %13 = load ptr, ptr %3, align 8, !tbaa !7
  store ptr %13, ptr %5, align 8, !tbaa !7
  %14 = load ptr, ptr %3, align 8, !tbaa !7
  %15 = load i64, ptr %4, align 8, !tbaa !3
  %16 = sub i64 %15, 1
  %17 = getelementptr inbounds nuw i64, ptr %14, i64 %16
  store ptr %17, ptr %6, align 8, !tbaa !7
  br label %18

18:                                               ; preds = %32, %12
  %19 = load ptr, ptr %5, align 8, !tbaa !7
  %20 = load ptr, ptr %6, align 8, !tbaa !7
  %21 = icmp ule ptr %19, %20
  br i1 %21, label %22, label %37

22:                                               ; preds = %18
  call void @llvm.lifetime.start.p0(i64 8, ptr %8) #7
  %23 = load ptr, ptr %5, align 8, !tbaa !7
  %24 = load i64, ptr %23, align 8, !tbaa !3
  %25 = call i64 @mpi_bigendian_to_host(i64 noundef %24)
  store i64 %25, ptr %8, align 8, !tbaa !3
  %26 = load ptr, ptr %6, align 8, !tbaa !7
  %27 = load i64, ptr %26, align 8, !tbaa !3
  %28 = call i64 @mpi_bigendian_to_host(i64 noundef %27)
  %29 = load ptr, ptr %5, align 8, !tbaa !7
  store i64 %28, ptr %29, align 8, !tbaa !3
  %30 = load i64, ptr %8, align 8, !tbaa !3
  %31 = load ptr, ptr %6, align 8, !tbaa !7
  store i64 %30, ptr %31, align 8, !tbaa !3
  call void @llvm.lifetime.end.p0(i64 8, ptr %8) #7
  br label %32

32:                                               ; preds = %22
  %33 = load ptr, ptr %5, align 8, !tbaa !7
  %34 = getelementptr inbounds nuw i64, ptr %33, i32 1
  store ptr %34, ptr %5, align 8, !tbaa !7
  %35 = load ptr, ptr %6, align 8, !tbaa !7
  %36 = getelementptr inbounds i64, ptr %35, i32 -1
  store ptr %36, ptr %6, align 8, !tbaa !7
  br label %18, !llvm.loop !14

37:                                               ; preds = %18
  store i32 0, ptr %7, align 4
  br label %38

38:                                               ; preds = %37, %11
  call void @llvm.lifetime.end.p0(i64 8, ptr %6) #7
  call void @llvm.lifetime.end.p0(i64 8, ptr %5) #7
  %39 = load i32, ptr %7, align 4
  switch i32 %39, label %41 [
    i32 0, label %40
    i32 1, label %40
  ]

40:                                               ; preds = %38, %38
  ret void

41:                                               ; preds = %38
  unreachable
}