; Function Attrs: nofree norecurse nosync nounwind memory(argmem: readwrite) uwtable
define hidden void @mbedtls_mpi_core_bigendian_to_host(ptr noundef %0, i64 noundef %1) local_unnamed_addr #4 {
  %3 = icmp eq i64 %1, 0
  %4 = getelementptr i64, ptr %0, i64 %1
  %.01214 = getelementptr i8, ptr %4, i64 -8
  %.not15 = icmp ugt ptr %0, %.01214
  %or.cond = or i1 %3, %.not15
  br i1 %or.cond, label %.loopexit, label %.lr.ph

.lr.ph:                                           ; preds = %2, %.lr.ph
  %.01217 = phi ptr [ %.012, %.lr.ph ], [ %.01214, %2 ]
  %.016 = phi ptr [ %9, %.lr.ph ], [ %0, %2 ]
  %5 = load i64, ptr %.016, align 8, !tbaa !3
  %6 = tail call noundef i64 @llvm.bswap.i64(i64 %5)
  %7 = load i64, ptr %.01217, align 8, !tbaa !3
  %8 = tail call noundef i64 @llvm.bswap.i64(i64 %7)
  store i64 %8, ptr %.016, align 8, !tbaa !3
  store i64 %6, ptr %.01217, align 8, !tbaa !3
  %9 = getelementptr inbounds nuw i8, ptr %.016, i64 8
  %.012 = getelementptr i8, ptr %.01217, i64 -8
  %.not = icmp ugt ptr %9, %.012
  br i1 %.not, label %.loopexit, label %.lr.ph, !llvm.loop !9

.loopexit:                                        ; preds = %.lr.ph, %2
  ret void
}